target datalayout = "e-m:e-p270:32:32-p271:32:32-p272:64:64-i64:64-i128:128-f80:128-n8:16:32:64-S128"
target triple = "x86_64-pc-linux-gnu"

; Function Attrs: nounwind uwtable
define double @Cudd_bddCorrelationWeights(ptr noundef %0, ptr noundef %1, ptr noundef %2, ptr noundef %3) #0 {
  %5 = alloca double, align 8
  %6 = alloca ptr, align 8
  %7 = alloca ptr, align 8
  %8 = alloca ptr, align 8
  %9 = alloca ptr, align 8
  %10 = alloca ptr, align 8
  %11 = alloca double, align 8
  store ptr %0, ptr %6, align 8
  store ptr %1, ptr %7, align 8
  store ptr %2, ptr %8, align 8
  store ptr %3, ptr %9, align 8
  %12 = call ptr @st__init_table(ptr noundef @CorrelCompare, ptr noundef @CorrelHash)
  store ptr %12, ptr %10, align 8
  %13 = load ptr, ptr %10, align 8
  %14 = icmp eq ptr %13, null
  br i1 %14, label %15, label %16

15:                                               ; preds = %4
  store double -1.000000e+00, ptr %5, align 8
  br label %27

16:                                               ; preds = %4
  %17 = load ptr, ptr %6, align 8
  %18 = load ptr, ptr %7, align 8
  %19 = load ptr, ptr %8, align 8
  %20 = load ptr, ptr %9, align 8
  %21 = load ptr, ptr %10, align 8
  %22 = call double @bddCorrelationWeightsAux(ptr noundef %17, ptr noundef %18, ptr noundef %19, ptr noundef %20, ptr noundef %21)
  store double %22, ptr %11, align 8
  %23 = load ptr, ptr %10, align 8
  %24 = call i32 @st__foreach(ptr noundef %23, ptr noundef @CorrelCleanUp, ptr noundef null)
  %25 = load ptr, ptr %10, align 8
  call void @st__free_table(ptr noundef %25)
  %26 = load double, ptr %11, align 8
  store double %26, ptr %5, align 8
  br label %27

27:                                               ; preds = %16, %15
  %28 = load double, ptr %5, align 8
  ret double %28
}