; Function Attrs: nounwind uwtable
define double @Cudd_bddCorrelationWeights(ptr noundef %0, ptr noundef %1, ptr noundef %2, ptr noundef %3) local_unnamed_addr #0 {
  %5 = tail call ptr @st__init_table(ptr noundef nonnull @CorrelCompare, ptr noundef nonnull @CorrelHash) #7
  %6 = icmp eq ptr %5, null
  br i1 %6, label %10, label %7

7:                                                ; preds = %4
  %8 = tail call fastcc double @bddCorrelationWeightsAux(ptr noundef %0, ptr noundef %1, ptr noundef %2, ptr noundef %3, ptr noundef %5)
  %9 = tail call i32 @st__foreach(ptr noundef nonnull %5, ptr noundef nonnull @CorrelCleanUp, ptr noundef null) #7
  tail call void @st__free_table(ptr noundef nonnull %5) #7
  br label %10

10:                                               ; preds = %4, %7
  %.0 = phi double [ %8, %7 ], [ -1.000000e+00, %4 ]
  ret double %.0
}